; Function Attrs: nounwind uwtable
define ptr @l_panic___at_Std_Time_Weekday_ofNat_x21___spec__1(ptr noundef %0) local_unnamed_addr #1 {
  %2 = load i8, ptr @l_Std_Time_instInhabitedWeekday, align 1, !tbaa !17
  %3 = zext i8 %2 to i64
  %4 = shl nuw nsw i64 %3, 1
  %5 = or disjoint i64 %4, 1
  %6 = inttoptr i64 %5 to ptr
  %7 = tail call ptr @lean_panic_fn(ptr noundef nonnull %6, ptr noundef %0) #7
  ret ptr %7
}